; Function Attrs: mustprogress uwtable
define hidden void @_ZN5ceres8internal31CUDADenseCholeskyMixedPrecision6CreateERKNS0_12LinearSolver7OptionsE(ptr dead_on_unwind noalias nocapture writable writeonly sret(%"class.std::unique_ptr.35") align 8 %0, ptr nocapture noundef nonnull readonly align 8 dereferenceable(128) %1) local_unnamed_addr #3 align 2 personality ptr @__gxx_personality_v0 {
  %3 = getelementptr inbounds i8, ptr %1, i64 12
  %4 = load i32, ptr %3, align 4
  %.not = icmp eq i32 %4, 2
  br i1 %.not, label %5, label %23

5:                                                ; preds = %2
  %6 = getelementptr inbounds i8, ptr %1, i64 104
  %7 = load i8, ptr %6, align 8
  %8 = and i8 %7, 1
  %.not7 = icmp eq i8 %8, 0
  br i1 %.not7, label %23, label %9

9:                                                ; preds = %5
  %10 = getelementptr inbounds i8, ptr %1, i64 120
  %11 = load ptr, ptr %10, align 8
  %12 = icmp eq ptr %11, null
  br i1 %12, label %23, label %13

13:                                               ; preds = %9
  %14 = getelementptr inbounds i8, ptr %11, i64 288
  %15 = load i8, ptr %14, align 8
  %16 = and i8 %15, 1
  %.not8 = icmp eq i8 %16, 0
  br i1 %.not8, label %23, label %17

17:                                               ; preds = %13
  %18 = tail call noalias noundef nonnull dereferenceable(248) ptr @_Znwm(i64 noundef 248) #24
  %19 = getelementptr inbounds i8, ptr %1, i64 108
  %20 = load i32, ptr %19, align 4
  invoke void @_ZN5ceres8internal31CUDADenseCholeskyMixedPrecisionC2EPNS0_11ContextImplEi(ptr noundef nonnull align 8 dereferenceable(248) %18, ptr noundef nonnull %11, i32 noundef %20)
          to label %23 unwind label %21

21:                                               ; preds = %17
  %22 = landingpad { ptr, i32 }
          cleanup
  tail call void @_ZdlPv(ptr noundef nonnull %18) #25
  resume { ptr, i32 } %22

23:                                               ; preds = %17, %2, %5, %9, %13
  %storemerge = phi ptr [ null, %13 ], [ null, %9 ], [ null, %5 ], [ null, %2 ], [ %18, %17 ]
  store ptr %storemerge, ptr %0, align 8
  ret void
}